; Function Attrs: mustprogress nounwind uwtable
define dso_local ptr @_ZN4node14GetMainContextEPNS_11EnvironmentE(ptr nocapture noundef readonly %env) local_unnamed_addr #3 {
entry:
  %principal_realm_.i.i = getelementptr inbounds i8, ptr %env, i64 2728
  %0 = load ptr, ptr %principal_realm_.i.i, align 8
  %vtable.i = load ptr, ptr %0, align 8
  %vfn.i = getelementptr inbounds i8, ptr %vtable.i, i64 64
  %1 = load ptr, ptr %vfn.i, align 8
  %call2.i = tail call ptr %1(ptr noundef nonnull align 8 dereferenceable(872) %0) #12
  ret ptr %call2.i
}